; ModuleID = '44/367.c'
source_filename = "44/367.c"
target datalayout = "e-m:e-p270:32:32-p271:32:32-p272:64:64-i64:64-f80:128-n8:16:32:64-S128"
target triple = "x86_64-pc-linux-gnu"

@.str = private unnamed_addr constant [3 x i8] c"%d\00", align 1
@.str.1 = private unnamed_addr constant [4 x i8] c"%d\0A\00", align 1

; Function Attrs: noinline nounwind uwtable
define dso_local i32 @re(i32 %0) #0 {
  %2 = alloca i32, align 4
  %3 = alloca i32, align 4
  store i32 %0, i32* %2, align 4
  store i32 0, i32* %3, align 4
  %4 = load i32, i32* %2, align 4
  %5 = icmp sgt i32 %4, 0
  br i1 %5, label %6, label %19

6:                                                ; preds = %1
  br label %7

7:                                                ; preds = %10, %6
  %8 = load i32, i32* %2, align 4
  %9 = icmp sgt i32 %8, 0
  br i1 %9, label %10, label %18

10:                                               ; preds = %7
  %11 = load i32, i32* %3, align 4
  %12 = mul nsw i32 %11, 10
  %13 = load i32, i32* %2, align 4
  %14 = srem i32 %13, 10
  %15 = add nsw i32 %12, %14
  store i32 %15, i32* %3, align 4
  %16 = load i32, i32* %2, align 4
  %17 = sdiv i32 %16, 10
  store i32 %17, i32* %2, align 4
  br label %7

18:                                               ; preds = %7
  br label %40

19:                                               ; preds = %1
  %20 = load i32, i32* %2, align 4
  %21 = icmp slt i32 %20, 0
  br i1 %21, label %22, label %39

22:                                               ; preds = %19
  %23 = load i32, i32* %2, align 4
  %24 = sub nsw i32 0, %23
  store i32 %24, i32* %2, align 4
  br label %25

25:                                               ; preds = %28, %22
  %26 = load i32, i32* %2, align 4
  %27 = icmp sgt i32 %26, 0
  br i1 %27, label %28, label %36

28:                                               ; preds = %25
  %29 = load i32, i32* %3, align 4
  %30 = mul nsw i32 %29, 10
  %31 = load i32, i32* %2, align 4
  %32 = srem i32 %31, 10
  %33 = add nsw i32 %30, %32
  store i32 %33, i32* %3, align 4
  %34 = load i32, i32* %2, align 4
  %35 = sdiv i32 %34, 10
  store i32 %35, i32* %2, align 4
  br label %25

36:                                               ; preds = %25
  %37 = load i32, i32* %3, align 4
  %38 = sub nsw i32 0, %37
  store i32 %38, i32* %3, align 4
  br label %39

39:                                               ; preds = %36, %19
  br label %40

40:                                               ; preds = %39, %18
  %41 = load i32, i32* %3, align 4
  ret i32 %41
}

; Function Attrs: noinline nounwind uwtable
define dso_local i32 @main() #0 {
  %1 = alloca i32, align 4
  %2 = alloca i32, align 4
  %3 = alloca i32, align 4
  %4 = alloca i32, align 4
  store i32 0, i32* %1, align 4
  store i32 0, i32* %2, align 4
  br label %5

5:                                                ; preds = %14, %0
  %6 = load i32, i32* %2, align 4
  %7 = icmp slt i32 %6, 6
  br i1 %7, label %8, label %17

8:                                                ; preds = %5
  %9 = call i32 (i8*, ...) @__isoc99_scanf(i8* getelementptr inbounds ([3 x i8], [3 x i8]* @.str, i64 0, i64 0), i32* %3)
  %10 = load i32, i32* %3, align 4
  %11 = call i32 @re(i32 %10)
  store i32 %11, i32* %4, align 4
  %12 = load i32, i32* %4, align 4
  %13 = call i32 (i8*, ...) @printf(i8* getelementptr inbounds ([4 x i8], [4 x i8]* @.str.1, i64 0, i64 0), i32 %12)
  br label %14

14:                                               ; preds = %8
  %15 = load i32, i32* %2, align 4
  %16 = add nsw i32 %15, 1
  store i32 %16, i32* %2, align 4
  br label %5

17:                                               ; preds = %5
  ret i32 0
}

declare dso_local i32 @__isoc99_scanf(i8*, ...) #1

declare dso_local i32 @printf(i8*, ...) #1


!llvm.module.flags = !{!0}
!llvm.ident = !{!1}

!0 = !{i32 1, !"wchar_size", i32 4}
!1 = !{!"clang version 10.0.0-4ubuntu1 "}
